target datalayout = "e-m:e-p270:32:32-p271:32:32-p272:64:64-i64:64-i128:128-f80:128-n8:16:32:64-S128"
target triple = "x86_64-pc-linux-gnu"

%union.pthread_mutex_t = type { %struct.__pthread_mutex_s }
%struct.__pthread_mutex_s = type { i32, i32, i32, i32, i32, i16, i16, %struct.__pthread_internal_list }
%struct.__pthread_internal_list = type { ptr, ptr }
%union.pthread_cond_t = type { %struct.__pthread_cond_s }
%struct.__pthread_cond_s = type { %union.__atomic_wide_counter, %union.__atomic_wide_counter, [2 x i32], [2 x i32], i32, i32, [2 x i32] }
%union.__atomic_wide_counter = type { i64 }
%struct.stepd_step_rec_t = type { ptr, ptr, i32, %union.pthread_cond_t, %union.pthread_mutex_t, %struct.slurm_step_id_msg, i32, i32, i32, i32, i32, i32, ptr, ptr, i32, i32, ptr, i32, i32, i32, i32, i32, ptr, ptr, ptr, ptr, i32, i32, i64, i64, i16, i32, ptr, ptr, ptr, i32, ptr, i32, ptr, i32, ptr, i16, i32, i32, i32, ptr, i32, ptr, ptr, ptr, ptr, i32, i32, ptr, ptr, i8, i8, i8, i64, i32, ptr, ptr, ptr, ptr, ptr, ptr, ptr, ptr, ptr, ptr, i32, i32, ptr, i8, %union.pthread_cond_t, %union.pthread_mutex_t, i64, ptr, i32, i32, i32, ptr, i64, ptr, ptr, i8, ptr, i16, ptr, ptr, ptr, ptr, ptr, ptr, i64, ptr, i64, ptr, i16, i8, i16, i32, ptr, i16, ptr, ptr, i16, ptr, ptr, ptr, i8 }
%struct.slurm_step_id_msg = type { i64, i32, i32, i32 }
%struct.cgroup_oom_t = type { i64, i64, i64, i64, i64 }

@plugin_type = external constant [0 x i8], align 1
@oom_mgr_started = internal global i8 0, align 1
@.str.6 = private unnamed_addr constant [110 x i8] c"%s: %s: %ps hit memory+swap limit at least once during execution. This may or may not result in some failure.\00", align 1
@__func__.task_cgroup_memory_check_oom = private unnamed_addr constant [29 x i8] c"task_cgroup_memory_check_oom\00", align 1
@.str.7 = private unnamed_addr constant [105 x i8] c"%s: %s: %ps hit memory limit at least once during execution. This may or may not result in some failure.\00", align 1
@.str.8 = private unnamed_addr constant [83 x i8] c"Detected %lu oom_kill event%s in %ps. Some of the step tasks have been OOM Killed.\00", align 1
@.str.9 = private unnamed_addr constant [1 x i8] zeroinitializer, align 1
@.str.10 = private unnamed_addr constant [2 x i8] c"s\00", align 1

; Function Attrs: nounwind uwtable
define dso_local i32 @task_cgroup_memory_check_oom(ptr noundef %0) #0 {
  %2 = alloca i32, align 4
  %3 = alloca ptr, align 8
  %4 = alloca ptr, align 8
  %5 = alloca i32, align 4
  %6 = alloca i32, align 4
  store ptr %0, ptr %3, align 8
  call void @llvm.lifetime.start.p0(i64 8, ptr %4) #4
  call void @llvm.lifetime.start.p0(i64 4, ptr %5) #4
  store i32 0, ptr %5, align 4
  %7 = load i8, ptr @oom_mgr_started, align 1, !range !8, !noundef !9
  %8 = trunc i8 %7 to i1
  br i1 %8, label %10, label %9

9:                                                ; preds = %1
  store i32 0, ptr %2, align 4
  store i32 1, ptr %6, align 4
  br label %124

10:                                               ; preds = %1
  %11 = load ptr, ptr %3, align 8
  %12 = call ptr @cgroup_g_step_stop_oom_mgr(ptr noundef %11)
  store ptr %12, ptr %4, align 8
  %13 = load ptr, ptr %4, align 8
  %14 = icmp eq ptr %13, null
  br i1 %14, label %15, label %16

15:                                               ; preds = %10
  store i32 -1, ptr %2, align 4
  store i32 1, ptr %6, align 4
  br label %124

16:                                               ; preds = %10
  %17 = load ptr, ptr %4, align 8
  %18 = getelementptr inbounds nuw %struct.cgroup_oom_t, ptr %17, i32 0, i32 1
  %19 = load i64, ptr %18, align 8
  %20 = icmp ugt i64 %19, 0
  br i1 %20, label %21, label %34

21:                                               ; preds = %16
  br label %22

22:                                               ; preds = %21
  br label %23

23:                                               ; preds = %22
  %24 = call i32 @get_log_level()
  %25 = icmp sge i32 %24, 3
  br i1 %25, label %26, label %29

26:                                               ; preds = %23
  %27 = load ptr, ptr %3, align 8
  %28 = getelementptr inbounds nuw %struct.stepd_step_rec_t, ptr %27, i32 0, i32 5
  call void (i32, ptr, ...) @log_var(i32 noundef 3, ptr noundef @.str.6, ptr noundef @plugin_type, ptr noundef @__func__.task_cgroup_memory_check_oom, ptr noundef %28)
  br label %29

29:                                               ; preds = %26, %23
  br label %30

30:                                               ; preds = %29
  br label %31

31:                                               ; preds = %30
  br label %32

32:                                               ; preds = %31
  br label %33

33:                                               ; preds = %32
  br label %53

34:                                               ; preds = %16
  %35 = load ptr, ptr %4, align 8
  %36 = getelementptr inbounds nuw %struct.cgroup_oom_t, ptr %35, i32 0, i32 0
  %37 = load i64, ptr %36, align 8
  %38 = icmp ugt i64 %37, 0
  br i1 %38, label %39, label %52

39:                                               ; preds = %34
  br label %40

40:                                               ; preds = %39
  br label %41

41:                                               ; preds = %40
  %42 = call i32 @get_log_level()
  %43 = icmp sge i32 %42, 3
  br i1 %43, label %44, label %47

44:                                               ; preds = %41
  %45 = load ptr, ptr %3, align 8
  %46 = getelementptr inbounds nuw %struct.stepd_step_rec_t, ptr %45, i32 0, i32 5
  call void (i32, ptr, ...) @log_var(i32 noundef 3, ptr noundef @.str.7, ptr noundef @plugin_type, ptr noundef @__func__.task_cgroup_memory_check_oom, ptr noundef %46)
  br label %47

47:                                               ; preds = %44, %41
  br label %48

48:                                               ; preds = %47
  br label %49

49:                                               ; preds = %48
  br label %50

50:                                               ; preds = %49
  br label %51

51:                                               ; preds = %50
  br label %52

52:                                               ; preds = %51, %34
  br label %53

53:                                               ; preds = %52, %33
  %54 = load ptr, ptr %4, align 8
  %55 = getelementptr inbounds nuw %struct.cgroup_oom_t, ptr %54, i32 0, i32 3
  %56 = load i64, ptr %55, align 8
  %57 = icmp ugt i64 %56, 0
  br i1 %57, label %58, label %71

58:                                               ; preds = %53
  br label %59

59:                                               ; preds = %58
  br label %60

60:                                               ; preds = %59
  %61 = call i32 @get_log_level()
  %62 = icmp sge i32 %61, 3
  br i1 %62, label %63, label %66

63:                                               ; preds = %60
  %64 = load ptr, ptr %3, align 8
  %65 = getelementptr inbounds nuw %struct.stepd_step_rec_t, ptr %64, i32 0, i32 5
  call void (i32, ptr, ...) @log_var(i32 noundef 3, ptr noundef @.str.6, ptr noundef @plugin_type, ptr noundef @__func__.task_cgroup_memory_check_oom, ptr noundef %65)
  br label %66

66:                                               ; preds = %63, %60
  br label %67

67:                                               ; preds = %66
  br label %68

68:                                               ; preds = %67
  br label %69

69:                                               ; preds = %68
  br label %70

70:                                               ; preds = %69
  br label %90

71:                                               ; preds = %53
  %72 = load ptr, ptr %4, align 8
  %73 = getelementptr inbounds nuw %struct.cgroup_oom_t, ptr %72, i32 0, i32 2
  %74 = load i64, ptr %73, align 8
  %75 = icmp ugt i64 %74, 0
  br i1 %75, label %76, label %89

76:                                               ; preds = %71
  br label %77

77:                                               ; preds = %76
  br label %78

78:                                               ; preds = %77
  %79 = call i32 @get_log_level()
  %80 = icmp sge i32 %79, 3
  br i1 %80, label %81, label %84

81:                                               ; preds = %78
  %82 = load ptr, ptr %3, align 8
  %83 = getelementptr inbounds nuw %struct.stepd_step_rec_t, ptr %82, i32 0, i32 5
  call void (i32, ptr, ...) @log_var(i32 noundef 3, ptr noundef @.str.7, ptr noundef @plugin_type, ptr noundef @__func__.task_cgroup_memory_check_oom, ptr noundef %83)
  br label %84

84:                                               ; preds = %81, %78
  br label %85

85:                                               ; preds = %84
  br label %86

86:                                               ; preds = %85
  br label %87

87:                                               ; preds = %86
  br label %88

88:                                               ; preds = %87
  br label %89

89:                                               ; preds = %88, %71
  br label %90

90:                                               ; preds = %89, %70
  %91 = load ptr, ptr %4, align 8
  %92 = getelementptr inbounds nuw %struct.cgroup_oom_t, ptr %91, i32 0, i32 4
  %93 = load i64, ptr %92, align 8
  %94 = icmp ne i64 %93, 0
  br i1 %94, label %95, label %122

95:                                               ; preds = %90
  %96 = load ptr, ptr %4, align 8
  %97 = getelementptr inbounds nuw %struct.cgroup_oom_t, ptr %96, i32 0, i32 4
  %98 = load i64, ptr %97, align 8
  %99 = load ptr, ptr %4, align 8
  %100 = getelementptr inbounds nuw %struct.cgroup_oom_t, ptr %99, i32 0, i32 4
  %101 = load i64, ptr %100, align 8
  %102 = icmp eq i64 %101, 1
  %103 = select i1 %102, ptr @.str.9, ptr @.str.10
  %104 = load ptr, ptr %3, align 8
  %105 = getelementptr inbounds nuw %struct.stepd_step_rec_t, ptr %104, i32 0, i32 5
  %106 = call i32 (ptr, ...) @error(ptr noundef @.str.8, i64 noundef %98, ptr noundef %103, ptr noundef %105)
  %107 = load ptr, ptr %3, align 8
  %108 = getelementptr inbounds nuw %struct.stepd_step_rec_t, ptr %107, i32 0, i32 110
  %109 = load i8, ptr %108, align 8, !range !8, !noundef !9
  %110 = trunc i8 %109 to i1
  br i1 %110, label %111, label %121

111:                                              ; preds = %95
  %112 = load ptr, ptr %3, align 8
  %113 = getelementptr inbounds nuw %struct.stepd_step_rec_t, ptr %112, i32 0, i32 5
  %114 = getelementptr inbounds nuw %struct.slurm_step_id_msg, ptr %113, i32 0, i32 1
  %115 = load i32, ptr %114, align 8
  %116 = load ptr, ptr %3, align 8
  %117 = getelementptr inbounds nuw %struct.stepd_step_rec_t, ptr %116, i32 0, i32 5
  %118 = getelementptr inbounds nuw %struct.slurm_step_id_msg, ptr %117, i32 0, i32 3
  %119 = load i32, ptr %118, align 8
  %120 = call i32 @slurm_terminate_job_step(i32 noundef %115, i32 noundef %119)
  br label %121

121:                                              ; preds = %111, %95
  store i32 12, ptr %5, align 4
  br label %122

122:                                              ; preds = %121, %90
  call void @slurm_xfree(ptr noundef %4)
  %123 = load i32, ptr %5, align 4
  store i32 %123, ptr %2, align 4
  store i32 1, ptr %6, align 4
  br label %124

124:                                              ; preds = %122, %15, %9
  call void @llvm.lifetime.end.p0(i64 4, ptr %5) #4
  call void @llvm.lifetime.end.p0(i64 8, ptr %4) #4
  %125 = load i32, ptr %2, align 4
  ret i32 %125
}