; Function Attrs: nounwind uwtable
define dso_local range(i32 -1, 13) i32 @task_cgroup_memory_check_oom(ptr noundef %0) local_unnamed_addr #0 {
  %2 = alloca ptr, align 8
  call void @llvm.lifetime.start.p0(i64 8, ptr nonnull %2) #5
  %.b13 = load i1, ptr @oom_mgr_started, align 1
  br i1 %.b13, label %3, label %49

3:                                                ; preds = %1
  %4 = tail call ptr @cgroup_g_step_stop_oom_mgr(ptr noundef %0) #5
  store ptr %4, ptr %2, align 8
  %5 = icmp eq ptr %4, null
  br i1 %5, label %49, label %6

6:                                                ; preds = %3
  %7 = getelementptr inbounds nuw i8, ptr %4, i64 8
  %8 = load i64, ptr %7, align 8
  %.not = icmp eq i64 %8, 0
  br i1 %.not, label %12, label %9

9:                                                ; preds = %6
  %10 = tail call i32 @get_log_level() #5
  %11 = icmp sgt i32 %10, 2
  br i1 %11, label %.sink.split, label %18

12:                                               ; preds = %6
  %13 = load i64, ptr %4, align 8
  %.not14 = icmp eq i64 %13, 0
  br i1 %.not14, label %18, label %14

14:                                               ; preds = %12
  %15 = tail call i32 @get_log_level() #5
  %16 = icmp sgt i32 %15, 2
  br i1 %16, label %.sink.split, label %18

.sink.split:                                      ; preds = %14, %9
  %.str.7.sink = phi ptr [ @.str.6, %9 ], [ @.str.7, %14 ]
  %17 = getelementptr inbounds nuw i8, ptr %0, i64 112
  tail call void (i32, ptr, ...) @log_var(i32 noundef 3, ptr noundef nonnull %.str.7.sink, ptr noundef nonnull @plugin_type, ptr noundef nonnull @__func__.task_cgroup_memory_check_oom, ptr noundef nonnull %17) #5
  br label %18

18:                                               ; preds = %.sink.split, %12, %14, %9
  %19 = getelementptr inbounds nuw i8, ptr %4, i64 24
  %20 = load i64, ptr %19, align 8
  %.not15 = icmp eq i64 %20, 0
  br i1 %.not15, label %24, label %21

21:                                               ; preds = %18
  %22 = tail call i32 @get_log_level() #5
  %23 = icmp sgt i32 %22, 2
  br i1 %23, label %.sink.split18, label %31

24:                                               ; preds = %18
  %25 = getelementptr inbounds nuw i8, ptr %4, i64 16
  %26 = load i64, ptr %25, align 8
  %.not16 = icmp eq i64 %26, 0
  br i1 %.not16, label %31, label %27

27:                                               ; preds = %24
  %28 = tail call i32 @get_log_level() #5
  %29 = icmp sgt i32 %28, 2
  br i1 %29, label %.sink.split18, label %31

.sink.split18:                                    ; preds = %27, %21
  %.str.7.sink19 = phi ptr [ @.str.6, %21 ], [ @.str.7, %27 ]
  %30 = getelementptr inbounds nuw i8, ptr %0, i64 112
  tail call void (i32, ptr, ...) @log_var(i32 noundef 3, ptr noundef nonnull %.str.7.sink19, ptr noundef nonnull @plugin_type, ptr noundef nonnull @__func__.task_cgroup_memory_check_oom, ptr noundef nonnull %30) #5
  br label %31

31:                                               ; preds = %.sink.split18, %24, %27, %21
  %32 = getelementptr inbounds nuw i8, ptr %4, i64 32
  %33 = load i64, ptr %32, align 8
  %.not17 = icmp eq i64 %33, 0
  br i1 %.not17, label %48, label %34

34:                                               ; preds = %31
  %35 = icmp eq i64 %33, 1
  %36 = select i1 %35, ptr @.str.9, ptr @.str.10
  %37 = getelementptr inbounds nuw i8, ptr %0, i64 112
  %38 = tail call i32 (ptr, ...) @error(ptr noundef nonnull @.str.8, i64 noundef %33, ptr noundef nonnull %36, ptr noundef nonnull %37) #5
  %39 = getelementptr inbounds nuw i8, ptr %0, i64 904
  %40 = load i8, ptr %39, align 8, !range !8, !noundef !9
  %41 = trunc nuw i8 %40 to i1
  br i1 %41, label %42, label %48

42:                                               ; preds = %34
  %43 = getelementptr inbounds nuw i8, ptr %0, i64 120
  %44 = load i32, ptr %43, align 8
  %45 = getelementptr inbounds nuw i8, ptr %0, i64 128
  %46 = load i32, ptr %45, align 8
  %47 = tail call i32 @slurm_terminate_job_step(i32 noundef %44, i32 noundef %46) #5
  br label %48

48:                                               ; preds = %34, %42, %31
  %.0 = phi i32 [ 0, %31 ], [ 12, %42 ], [ 12, %34 ]
  call void @slurm_xfree(ptr noundef nonnull %2) #5
  br label %49

49:                                               ; preds = %3, %1, %48
  %.010 = phi i32 [ %.0, %48 ], [ 0, %1 ], [ -1, %3 ]
  call void @llvm.lifetime.end.p0(i64 8, ptr nonnull %2) #5
  ret i32 %.010
}